#include <math.h>
#include <stdio.h>
#include <stdlib.h>
#include <string.h>


int main(){
	int n,i,m;
	double sz[100],*p;
	scanf("%d",&n);
	for(i=0;i<n;i++){
		scanf("%d",&m);
		for(p=sz;p<sz+m;p++){
			scanf("%lf",p);
		}
		double aver,sum=0;
		for(p=sz;p<sz+m;p++){
			sum=sum+*p;
		}
		aver=sum/m;
		sum=0;
		for(p=sz;p<sz+m;p++){
			sum=sum+pow((*p-aver),2);
		}
		double jfc;
		jfc=sqrt(sum/m);
		printf("%.5lf\n",jfc);
	}
	return 0;
}
