; ModuleID = 'source-C-CXX/37/46.c'
source_filename = "source-C-CXX/37/46.c"
target datalayout = "e-m:e-p270:32:32-p271:32:32-p272:64:64-i64:64-f80:128-n8:16:32:64-S128"
target triple = "x86_64-pc-linux-gnu"

@.str = private unnamed_addr constant [3 x i8] c"%d\00", align 1
@.str.1 = private unnamed_addr constant [4 x i8] c"%lf\00", align 1
@.str.2 = private unnamed_addr constant [7 x i8] c"%.5lf\0A\00", align 1

; Function Attrs: nofree nounwind sspstrong uwtable
define dso_local i32 @main() local_unnamed_addr #0 {
  %1 = alloca i32, align 4
  %2 = alloca i32, align 4
  %3 = alloca [100 x double], align 16
  %4 = bitcast i32* %1 to i8*
  call void @llvm.lifetime.start.p0i8(i64 4, i8* nonnull %4) #4
  %5 = bitcast i32* %2 to i8*
  call void @llvm.lifetime.start.p0i8(i64 4, i8* nonnull %5) #4
  %6 = bitcast [100 x double]* %3 to i8*
  call void @llvm.lifetime.start.p0i8(i64 800, i8* nonnull %6) #4
  %7 = call i32 (i8*, ...) @__isoc99_scanf(i8* getelementptr inbounds ([3 x i8], [3 x i8]* @.str, i64 0, i64 0), i32* nonnull %1)
  %8 = getelementptr inbounds [100 x double], [100 x double]* %3, i64 0, i64 0
  %9 = load i32, i32* %1, align 4, !tbaa !5
  %10 = icmp sgt i32 %9, 0
  br i1 %10, label %11, label %60

11:                                               ; preds = %0, %51
  %12 = phi i32 [ %57, %51 ], [ 0, %0 ]
  %13 = call i32 (i8*, ...) @__isoc99_scanf(i8* getelementptr inbounds ([3 x i8], [3 x i8]* @.str, i64 0, i64 0), i32* nonnull %2)
  %14 = load i32, i32* %2, align 4, !tbaa !5
  %15 = sext i32 %14 to i64
  %16 = getelementptr inbounds [100 x double], [100 x double]* %3, i64 0, i64 %15
  %17 = icmp sgt i32 %14, 0
  br i1 %17, label %24, label %18

18:                                               ; preds = %24, %11
  %19 = phi i32 [ %14, %11 ], [ %28, %24 ]
  %20 = phi double* [ %16, %11 ], [ %30, %24 ]
  %21 = icmp ult double* %8, %20
  br i1 %21, label %32, label %22

22:                                               ; preds = %18
  %23 = sitofp i32 %19 to double
  br label %51

24:                                               ; preds = %11, %24
  %25 = phi double* [ %27, %24 ], [ %8, %11 ]
  %26 = call i32 (i8*, ...) @__isoc99_scanf(i8* getelementptr inbounds ([4 x i8], [4 x i8]* @.str.1, i64 0, i64 0), double* nonnull %25)
  %27 = getelementptr inbounds double, double* %25, i64 1
  %28 = load i32, i32* %2, align 4, !tbaa !5
  %29 = sext i32 %28 to i64
  %30 = getelementptr inbounds [100 x double], [100 x double]* %3, i64 0, i64 %29
  %31 = icmp ult double* %27, %30
  br i1 %31, label %24, label %18, !llvm.loop !9

32:                                               ; preds = %18, %32
  %33 = phi double [ %36, %32 ], [ 0.000000e+00, %18 ]
  %34 = phi double* [ %37, %32 ], [ %8, %18 ]
  %35 = load double, double* %34, align 8, !tbaa !11
  %36 = fadd double %33, %35
  %37 = getelementptr inbounds double, double* %34, i64 1
  %38 = icmp ult double* %37, %20
  br i1 %38, label %32, label %39, !llvm.loop !13

39:                                               ; preds = %32
  %40 = sitofp i32 %19 to double
  %41 = fdiv double %36, %40
  br i1 %21, label %42, label %51

42:                                               ; preds = %39, %42
  %43 = phi double [ %48, %42 ], [ 0.000000e+00, %39 ]
  %44 = phi double* [ %49, %42 ], [ %8, %39 ]
  %45 = load double, double* %44, align 8, !tbaa !11
  %46 = fsub double %45, %41
  %47 = fmul double %46, %46
  %48 = fadd double %43, %47
  %49 = getelementptr inbounds double, double* %44, i64 1
  %50 = icmp ult double* %49, %20
  br i1 %50, label %42, label %51, !llvm.loop !14

51:                                               ; preds = %42, %22, %39
  %52 = phi double [ %40, %39 ], [ %23, %22 ], [ %40, %42 ]
  %53 = phi double [ 0.000000e+00, %39 ], [ 0.000000e+00, %22 ], [ %48, %42 ]
  %54 = fdiv double %53, %52
  %55 = call double @sqrt(double %54) #4
  %56 = call i32 (i8*, ...) @printf(i8* nonnull dereferenceable(1) getelementptr inbounds ([7 x i8], [7 x i8]* @.str.2, i64 0, i64 0), double %55)
  %57 = add nuw nsw i32 %12, 1
  %58 = load i32, i32* %1, align 4, !tbaa !5
  %59 = icmp slt i32 %57, %58
  br i1 %59, label %11, label %60, !llvm.loop !15

60:                                               ; preds = %51, %0
  call void @llvm.lifetime.end.p0i8(i64 800, i8* nonnull %6) #4
  call void @llvm.lifetime.end.p0i8(i64 4, i8* nonnull %5) #4
  call void @llvm.lifetime.end.p0i8(i64 4, i8* nonnull %4) #4
  ret i32 0
}

; Function Attrs: argmemonly mustprogress nofree nosync nounwind willreturn
declare void @llvm.lifetime.start.p0i8(i64 immarg, i8* nocapture) #1

; Function Attrs: nofree nounwind
declare noundef i32 @__isoc99_scanf(i8* nocapture noundef readonly, ...) local_unnamed_addr #2

; Function Attrs: mustprogress nofree nounwind willreturn
declare double @sqrt(double) local_unnamed_addr #3

; Function Attrs: nofree nounwind
declare noundef i32 @printf(i8* nocapture noundef readonly, ...) local_unnamed_addr #2

; Function Attrs: argmemonly mustprogress nofree nosync nounwind willreturn
declare void @llvm.lifetime.end.p0i8(i64 immarg, i8* nocapture) #1


!llvm.module.flags = !{!0, !1, !2, !3}
!llvm.ident = !{!4}

!0 = !{i32 1, !"wchar_size", i32 4}
!1 = !{i32 7, !"PIC Level", i32 2}
!2 = !{i32 7, !"PIE Level", i32 2}
!3 = !{i32 7, !"uwtable", i32 1}
!4 = !{!"clang version 13.0.0"}
!5 = !{!6, !6, i64 0}
!6 = !{!"int", !7, i64 0}
!7 = !{!"omnipotent char", !8, i64 0}
!8 = !{!"Simple C/C++ TBAA"}
!9 = distinct !{!9, !10}
!10 = !{!"llvm.loop.mustprogress"}
!11 = !{!12, !12, i64 0}
!12 = !{!"double", !7, i64 0}
!13 = distinct !{!13, !10}
!14 = distinct !{!14, !10}
!15 = distinct !{!15, !10}
